Certificate:
    Data:
        Version: 3 (0x2)
        Serial Number: 11352113428982226694 (0x9d8acf04806d5f06)
    Signature Algorithm: sha1WithRSAEncryption
        Issuer: C=DE, ST=Bavaria, L=Munich, O=MIT-xperts GmbH, OU=HBBTV-DEMO-CA, CN=itv.mit-xperts.com/emailAddress=info@mit-xperts.com
        Validity
            Not Before: Oct 22 11:08:42 2017 GMT
            Not After : Oct 21 11:08:42 2022 GMT
        Subject: C=DE, ST=Bavaria, L=Munich, O=MIT-xperts GmbH, OU=TEST CA, CN=testbox.mit-xperts.com/emailAddress=info@mit-xperts.com
        Subject Public Key Info:
            Public Key Algorithm: rsaEncryption
                Public-Key: (2048 bit)
                Modulus:
                    00:b8:1a:72:16:77:53:31:b6:cd:59:0c:2b:7a:24:
                    f4:d5:d2:6b:c5:9f:e6:6b:c2:a1:3f:e1:61:4d:01:
                    aa:ad:45:a0:a1:68:fd:b5:35:0d:47:e7:93:45:35:
                    8a:35:0e:5d:80:84:30:cd:2b:53:14:93:ea:ea:e8:
                    b6:4e:5a:6f:17:8a:e3:01:03:f7:ec:de:e0:4d:12:
                    5a:1a:f5:66:28:00:46:f7:a3:34:b5:e0:01:be:77:
                    5c:aa:e3:57:62:36:5e:05:db:2b:35:7f:5d:2c:e2:
                    05:bf:1f:6e:d4:1e:5d:86:d4:18:1b:f5:9c:75:c8:
                    56:47:60:8b:63:18:aa:53:97:92:3c:7c:ef:cc:42:
                    d5:85:be:aa:0a:f6:b6:34:53:16:07:a5:2e:93:9d:
                    f7:3b:02:ba:d0:30:db:0e:16:ee:34:d7:93:7c:26:
                    e0:c3:b6:2c:cd:c6:ca:bc:b0:e2:b6:32:04:19:35:
                    eb:8e:83:e4:93:fb:c8:eb:25:1f:02:6f:14:6e:bd:
                    e8:df:85:93:36:40:c7:c1:78:00:a3:17:2c:50:18:
                    19:f8:51:99:32:b3:8e:98:e6:55:c9:0b:1e:e7:e9:
                    98:b1:d6:9f:b2:f6:a3:6b:26:31:1d:ba:9f:4e:f6:
                    af:55:22:34:bc:e8:ad:70:3f:3e:b6:26:a6:95:97:
                    a4:7b
                Exponent: 65537 (0x10001)
        X509v3 extensions:
            X509v3 Basic Constraints: 
                CA:FALSE
            Netscape Comment: 
                OpenSSL Generated Certificate
            X509v3 Subject Key Identifier: 
                42:37:EC:ED:44:83:9C:DE:21:75:DF:4C:82:19:B9:01:00:E2:BE:A1
            X509v3 Authority Key Identifier: 
                keyid:C4:6E:4F:F3:A1:11:B8:FC:CF:F9:AB:B6:7D:12:BF:2B:28:08:0F:72

    Signature Algorithm: sha1WithRSAEncryption
         50:70:0f:05:fa:0b:bc:1f:e4:ac:24:e0:05:98:6c:c3:16:cb:
         ba:d4:02:07:c8:43:1b:7a:cf:b2:92:6c:0f:74:d4:1e:14:94:
         95:6c:47:ba:5c:52:04:c7:cd:28:cb:f5:94:a0:35:49:7f:f8:
         fb:67:a9:92:9c:fc:db:97:8e:e3:bb:b4:48:bb:26:4a:55:dd:
         cd:fb:0e:b7:41:8b:a9:b0:7d:21:03:a7:4f:1b:b6:ff:7c:ff:
         82:d3:5a:1d:49:43:a3:62:50:7f:6e:02:7c:60:05:41:5b:fe:
         d8:5a:7c:fb:70:79:0e:f2:af:b8:72:04:19:1e:80:db:b5:1a:
         ff:00:51:ef:c3:9f:d6:37:70:bc:c0:44:80:37:8d:e7:e4:79:
         af:41:e3:0a:df:c0:e4:e0:dd:1b:d8:fc:a7:ec:29:61:06:8c:
         59:9e:80:da:23:8c:58:47:60:bd:09:d0:79:6d:81:e6:00:fd:
         98:e5:75:80:28:78:1c:26:0c:5d:ff:da:a6:e5:99:12:86:9f:
         9b:aa:9d:d5:0f:92:78:1e:03:fc:b6:ec:9c:34:0d:d6:ec:ea:
         ad:38:fc:26:0e:c2:d6:1e:79:28:d3:1e:60:40:98:58:12:a2:
         a9:ec:ed:c4:17:4b:18:48:e4:a8:26:5a:ae:75:0d:60:47:f3:
         5c:33:db:a7
-----BEGIN CERTIFICATE-----
MIIERDCCAyygAwIBAgIJAJ2KzwSAbV8GMA0GCSqGSIb3DQEBBQUAMIGjMQswCQYD
VQQGEwJERTEQMA4GA1UECBMHQmF2YXJpYTEPMA0GA1UEBxMGTXVuaWNoMRgwFgYD
VQQKEw9NSVQteHBlcnRzIEdtYkgxFjAUBgNVBAsTDUhCQlRWLURFTU8tQ0ExGzAZ
BgNVBAMTEml0di5taXQteHBlcnRzLmNvbTEiMCAGCSqGSIb3DQEJARYTaW5mb0Bt
aXQteHBlcnRzLmNvbTAeFw0xNzEwMjIxMTA4NDJaFw0yMjEwMjExMTA4NDJaMIGh
MQswCQYDVQQGEwJERTEQMA4GA1UECAwHQmF2YXJpYTEPMA0GA1UEBwwGTXVuaWNo
MRgwFgYDVQQKDA9NSVQteHBlcnRzIEdtYkgxEDAOBgNVBAsMB1RFU1QgQ0ExHzAd
BgNVBAMMFnRlc3Rib3gubWl0LXhwZXJ0cy5jb20xIjAgBgkqhkiG9w0BCQEWE2lu
Zm9AbWl0LXhwZXJ0cy5jb20wggEiMA0GCSqGSIb3DQEBAQUAA4IBDwAwggEKAoIB
AQC4GnIWd1Mxts1ZDCt6JPTV0mvFn+ZrwqE/4WFNAaqtRaChaP21NQ1H55NFNYo1
Dl2AhDDNK1MUk+rq6LZOWm8XiuMBA/fs3uBNEloa9WYoAEb3ozS14AG+d1yq41di
Nl4F2ys1f10s4gW/H27UHl2G1Bgb9Zx1yFZHYItjGKpTl5I8fO/MQtWFvqoK9rY0
UxYHpS6Tnfc7ArrQMNsOFu4015N8JuDDtizNxsq8sOK2MgQZNeuOg+ST+8jrJR8C
bxRuvejfhZM2QMfBeACjFyxQGBn4UZkys46Y5lXJCx7n6Zix1p+y9qNrJjEdup9O
9q9VIjS86K1wPz62JqaVl6R7AgMBAAGjezB5MAkGA1UdEwQCMAAwLAYJYIZIAYb4
QgENBB8WHU9wZW5TU0wgR2VuZXJhdGVkIENlcnRpZmljYXRlMB0GA1UdDgQWBBRC
N+ztRIOc3iF130yCGbkBAOK+oTAfBgNVHSMEGDAWgBTEbk/zoRG4/M/5q7Z9Er8r
KAgPcjANBgkqhkiG9w0BAQUFAAOCAQEAUHAPBfoLvB/krCTgBZhswxbLutQCB8hD
G3rPspJsD3TUHhSUlWxHulxSBMfNKMv1lKA1SX/4+2epkpz825eO47u0SLsmSlXd
zfsOt0GLqbB9IQOnTxu2/3z/gtNaHUlDo2JQf24CfGAFQVv+2Fp8+3B5DvKvuHIE
GR6A27Ua/wBR78Of1jdwvMBEgDeN5+R5r0HjCt/A5ODdG9j8p+wpYQaMWZ6A2iOM
WEdgvQnQeW2B5gD9mOV1gCh4HCYMXf/apuWZEoafm6qd1Q+SeB4D/LbsnDQN1uzq
rTj8Jg7C1h55KNMeYECYWBKiqeztxBdLGEjkqCZarnUNYEfzXDPbpw==
-----END CERTIFICATE-----